target datalayout = "e-m:e-p270:32:32-p271:32:32-p272:64:64-i64:64-i128:128-f80:128-n8:16:32:64-S128"
target triple = "x86_64-pc-linux-gnu"

@hf_gdsdb_receive_request = internal global i32 0, align 4
@hf_gdsdb_receive_incarnation = internal global i32 0, align 4
@hf_gdsdb_receive_transaction = internal global i32 0, align 4
@hf_gdsdb_receive_msgnr = internal global i32 0, align 4
@hf_gdsdb_receive_messages = internal global i32 0, align 4
@hf_gdsdb_receive_direction = internal global i32 0, align 4
@hf_gdsdb_receive_offset = internal global i32 0, align 4

; Function Attrs: nounwind uwtable
define internal i32 @gdsdb_receive(ptr noundef %0, ptr noundef %1, ptr noundef %2, i32 noundef %3) #0 {
  %5 = alloca i32, align 4
  %6 = alloca ptr, align 8
  %7 = alloca ptr, align 8
  %8 = alloca ptr, align 8
  %9 = alloca i32, align 4
  store ptr %0, ptr %6, align 8
  store ptr %1, ptr %7, align 8
  store ptr %2, ptr %8, align 8
  store i32 %3, ptr %9, align 4
  %10 = load ptr, ptr %6, align 8
  %11 = load i32, ptr %9, align 4
  %12 = call i32 @tvb_reported_length_remaining(ptr noundef %10, i32 noundef %11)
  %13 = icmp slt i32 %12, 20
  br i1 %13, label %14, label %15

14:                                               ; preds = %4
  store i32 -1, ptr %5, align 4
  br label %73

15:                                               ; preds = %4
  %16 = load ptr, ptr %8, align 8
  %17 = load i32, ptr @hf_gdsdb_receive_request, align 4
  %18 = load ptr, ptr %6, align 8
  %19 = load i32, ptr %9, align 4
  %20 = call ptr @proto_tree_add_item(ptr noundef %16, i32 noundef %17, ptr noundef %18, i32 noundef %19, i32 noundef 4, i32 noundef 0)
  %21 = load i32, ptr %9, align 4
  %22 = add i32 %21, 4
  store i32 %22, ptr %9, align 4
  %23 = load ptr, ptr %8, align 8
  %24 = load i32, ptr @hf_gdsdb_receive_incarnation, align 4
  %25 = load ptr, ptr %6, align 8
  %26 = load i32, ptr %9, align 4
  %27 = call ptr @proto_tree_add_item(ptr noundef %23, i32 noundef %24, ptr noundef %25, i32 noundef %26, i32 noundef 4, i32 noundef 0)
  %28 = load i32, ptr %9, align 4
  %29 = add i32 %28, 4
  store i32 %29, ptr %9, align 4
  %30 = load ptr, ptr %8, align 8
  %31 = load i32, ptr @hf_gdsdb_receive_transaction, align 4
  %32 = load ptr, ptr %6, align 8
  %33 = load i32, ptr %9, align 4
  %34 = call ptr @proto_tree_add_item(ptr noundef %30, i32 noundef %31, ptr noundef %32, i32 noundef %33, i32 noundef 4, i32 noundef 0)
  %35 = load i32, ptr %9, align 4
  %36 = add i32 %35, 4
  store i32 %36, ptr %9, align 4
  %37 = load ptr, ptr %8, align 8
  %38 = load i32, ptr @hf_gdsdb_receive_msgnr, align 4
  %39 = load ptr, ptr %6, align 8
  %40 = load i32, ptr %9, align 4
  %41 = call ptr @proto_tree_add_item(ptr noundef %37, i32 noundef %38, ptr noundef %39, i32 noundef %40, i32 noundef 4, i32 noundef 0)
  %42 = load i32, ptr %9, align 4
  %43 = add i32 %42, 4
  store i32 %43, ptr %9, align 4
  %44 = load ptr, ptr %8, align 8
  %45 = load i32, ptr @hf_gdsdb_receive_messages, align 4
  %46 = load ptr, ptr %6, align 8
  %47 = load i32, ptr %9, align 4
  %48 = call ptr @proto_tree_add_item(ptr noundef %44, i32 noundef %45, ptr noundef %46, i32 noundef %47, i32 noundef 4, i32 noundef 0)
  %49 = load i32, ptr %9, align 4
  %50 = add i32 %49, 4
  store i32 %50, ptr %9, align 4
  br label %51

51:                                               ; preds = %56, %15
  %52 = load ptr, ptr %6, align 8
  %53 = load i32, ptr %9, align 4
  %54 = call i32 @tvb_reported_length_remaining(ptr noundef %52, i32 noundef %53)
  %55 = icmp sge i32 %54, 12
  br i1 %55, label %56, label %71

56:                                               ; preds = %51
  %57 = load ptr, ptr %8, align 8
  %58 = load i32, ptr @hf_gdsdb_receive_direction, align 4
  %59 = load ptr, ptr %6, align 8
  %60 = load i32, ptr %9, align 4
  %61 = call ptr @proto_tree_add_item(ptr noundef %57, i32 noundef %58, ptr noundef %59, i32 noundef %60, i32 noundef 4, i32 noundef 0)
  %62 = load i32, ptr %9, align 4
  %63 = add i32 %62, 4
  store i32 %63, ptr %9, align 4
  %64 = load ptr, ptr %8, align 8
  %65 = load i32, ptr @hf_gdsdb_receive_offset, align 4
  %66 = load ptr, ptr %6, align 8
  %67 = load i32, ptr %9, align 4
  %68 = call ptr @proto_tree_add_item(ptr noundef %64, i32 noundef %65, ptr noundef %66, i32 noundef %67, i32 noundef 8, i32 noundef 0)
  %69 = load i32, ptr %9, align 4
  %70 = add i32 %69, 8
  store i32 %70, ptr %9, align 4
  br label %51, !llvm.loop !7

71:                                               ; preds = %51
  %72 = load i32, ptr %9, align 4
  store i32 %72, ptr %5, align 4
  br label %73

73:                                               ; preds = %71, %14
  %74 = load i32, ptr %5, align 4
  ret i32 %74
}