; Function Attrs: nounwind uwtable
define internal noundef i32 @gdsdb_receive(ptr noundef %0, ptr readnone captures(none) %1, ptr noundef %2, i32 noundef %3) #0 {
  %5 = tail call i32 @tvb_reported_length_remaining(ptr noundef %0, i32 noundef %3) #3
  %6 = icmp slt i32 %5, 20
  br i1 %6, label %.loopexit, label %7

7:                                                ; preds = %4
  %8 = load i32, ptr @hf_gdsdb_receive_request, align 4
  %9 = tail call ptr @proto_tree_add_item(ptr noundef %2, i32 noundef %8, ptr noundef %0, i32 noundef %3, i32 noundef 4, i32 noundef 0) #3
  %10 = add i32 %3, 4
  %11 = load i32, ptr @hf_gdsdb_receive_incarnation, align 4
  %12 = tail call ptr @proto_tree_add_item(ptr noundef %2, i32 noundef %11, ptr noundef %0, i32 noundef %10, i32 noundef 4, i32 noundef 0) #3
  %13 = add i32 %3, 8
  %14 = load i32, ptr @hf_gdsdb_receive_transaction, align 4
  %15 = tail call ptr @proto_tree_add_item(ptr noundef %2, i32 noundef %14, ptr noundef %0, i32 noundef %13, i32 noundef 4, i32 noundef 0) #3
  %16 = add i32 %3, 12
  %17 = load i32, ptr @hf_gdsdb_receive_msgnr, align 4
  %18 = tail call ptr @proto_tree_add_item(ptr noundef %2, i32 noundef %17, ptr noundef %0, i32 noundef %16, i32 noundef 4, i32 noundef 0) #3
  %19 = add i32 %3, 16
  %20 = load i32, ptr @hf_gdsdb_receive_messages, align 4
  %21 = tail call ptr @proto_tree_add_item(ptr noundef %2, i32 noundef %20, ptr noundef %0, i32 noundef %19, i32 noundef 4, i32 noundef 0) #3
  %22 = add i32 %3, 20
  %23 = tail call i32 @tvb_reported_length_remaining(ptr noundef %0, i32 noundef %22) #3
  %24 = icmp sgt i32 %23, 11
  br i1 %24, label %.lr.ph, label %.loopexit

.lr.ph:                                           ; preds = %7, %.lr.ph
  %.034 = phi i32 [ %30, %.lr.ph ], [ %22, %7 ]
  %25 = load i32, ptr @hf_gdsdb_receive_direction, align 4
  %26 = tail call ptr @proto_tree_add_item(ptr noundef %2, i32 noundef %25, ptr noundef %0, i32 noundef %.034, i32 noundef 4, i32 noundef 0) #3
  %27 = add i32 %.034, 4
  %28 = load i32, ptr @hf_gdsdb_receive_offset, align 4
  %29 = tail call ptr @proto_tree_add_item(ptr noundef %2, i32 noundef %28, ptr noundef %0, i32 noundef %27, i32 noundef 8, i32 noundef 0) #3
  %30 = add i32 %.034, 12
  %31 = tail call i32 @tvb_reported_length_remaining(ptr noundef %0, i32 noundef %30) #3
  %32 = icmp sgt i32 %31, 11
  br i1 %32, label %.lr.ph, label %.loopexit, !llvm.loop !7

.loopexit:                                        ; preds = %.lr.ph, %7, %4
  %.033 = phi i32 [ -1, %4 ], [ %22, %7 ], [ %30, %.lr.ph ]
  ret i32 %.033
}